; Function Attrs: mustprogress nounwind uwtable
define dso_local noundef zeroext i1 @_ZN5clang7CodeGen15CodeGenFunction21cxxDestructorCanThrowENS_8QualTypeE(i64 %0) local_unnamed_addr #0 align 2 {
  %2 = and i64 %0, -16
  %3 = inttoptr i64 %2 to ptr
  %4 = load ptr, ptr %3, align 16
  %5 = tail call noundef ptr @_ZNK5clang4Type18getAsCXXRecordDeclEv(ptr noundef nonnull align 16 dereferenceable(24) %4) #24
  %.not = icmp eq ptr %5, null
  br i1 %.not, label %19, label %6

6:                                                ; preds = %1
  %7 = tail call noundef ptr @_ZNK5clang13CXXRecordDecl13getDestructorEv(ptr noundef nonnull align 8 dereferenceable(144) %5) #24
  %.not7 = icmp eq ptr %7, null
  br i1 %.not7, label %19, label %8

8:                                                ; preds = %6
  %9 = getelementptr inbounds nuw i8, ptr %7, i64 48
  %.sroa.0.0.copyload.i = load i64, ptr %9, align 8
  %10 = and i64 %.sroa.0.0.copyload.i, -16
  %11 = inttoptr i64 %10 to ptr
  %12 = load ptr, ptr %11, align 16
  %13 = getelementptr inbounds nuw i8, ptr %12, i64 16
  %14 = load i8, ptr %13, align 16
  %.not.i = icmp eq i8 %14, 26
  br i1 %.not.i, label %_ZNK5clang4Type6castAsINS_17FunctionProtoTypeEEEPKT_v.exit, label %15

15:                                               ; preds = %8
  %16 = tail call noundef ptr @_ZNK5clang4Type27getUnqualifiedDesugaredTypeEv(ptr noundef nonnull align 16 dereferenceable(24) %12) #24
  br label %_ZNK5clang4Type6castAsINS_17FunctionProtoTypeEEEPKT_v.exit

_ZNK5clang4Type6castAsINS_17FunctionProtoTypeEEEPKT_v.exit: ; preds = %8, %15
  %.0.i = phi ptr [ %16, %15 ], [ %12, %8 ]
  %17 = tail call noundef i32 @_ZNK5clang17FunctionProtoType8canThrowEv(ptr noundef nonnull align 16 dereferenceable(48) %.0.i) #24
  %18 = icmp ne i32 %17, 0
  br label %19

19:                                               ; preds = %1, %6, %_ZNK5clang4Type6castAsINS_17FunctionProtoTypeEEEPKT_v.exit
  %.0 = phi i1 [ %18, %_ZNK5clang4Type6castAsINS_17FunctionProtoTypeEEEPKT_v.exit ], [ false, %6 ], [ false, %1 ]
  ret i1 %.0
}